target datalayout = "e-m:e-p270:32:32-p271:32:32-p272:64:64-i64:64-i128:128-f80:128-n8:16:32:64-S128"
target triple = "x86_64-pc-linux-gnu"

%"class.icu_77::LocDataParser" = type { ptr, ptr, ptr, i16, ptr, ptr }
%struct.UParseError = type { i32, i32, [16 x i16], [16 x i16] }
%"class.icu_77::Char16Ptr" = type { ptr }
%"class.icu_77::UnicodeString" = type { %"class.icu_77::Replaceable", %"union.icu_77::UnicodeString::StackBufferOrFields" }
%"class.icu_77::Replaceable" = type { %"class.icu_77::UObject" }
%"class.icu_77::UObject" = type { ptr }
%"union.icu_77::UnicodeString::StackBufferOrFields" = type { %struct.anon.0, [32 x i8] }
%struct.anon.0 = type { i16, i32, i32, ptr }

; Function Attrs: inlinehint mustprogress nounwind uwtable
define linkonce_odr noundef i32 @_ZNK6icu_7713UnicodeString14getShortLengthEv(ptr noundef nonnull align 8 dereferenceable(64) %0) #4 comdat align 2 {
  %2 = alloca ptr, align 8
  store ptr %0, ptr %2, align 8, !tbaa !76
  %3 = load ptr, ptr %2, align 8
  %4 = getelementptr inbounds nuw %"class.icu_77::UnicodeString", ptr %3, i32 0, i32 1
  %5 = getelementptr inbounds nuw %struct.anon.0, ptr %4, i32 0, i32 0
  %6 = load i16, ptr %5, align 8, !tbaa !39
  %7 = sext i16 %6 to i32
  %8 = ashr i32 %7, 5
  ret i32 %8
}

; Function Attrs: inlinehint mustprogress nounwind uwtable
define linkonce_odr noundef signext i8 @_ZNK6icu_7713UnicodeString14hasShortLengthEv(ptr noundef nonnull align 8 dereferenceable(64) %0) #4 comdat align 2 {
  %2 = alloca ptr, align 8
  store ptr %0, ptr %2, align 8, !tbaa !76
  %3 = load ptr, ptr %2, align 8
  %4 = getelementptr inbounds nuw %"class.icu_77::UnicodeString", ptr %3, i32 0, i32 1
  %5 = getelementptr inbounds nuw %struct.anon.0, ptr %4, i32 0, i32 0
  %6 = load i16, ptr %5, align 8, !tbaa !39
  %7 = sext i16 %6 to i32
  %8 = icmp sge i32 %7, 0
  %9 = zext i1 %8 to i8
  ret i8 %9
}

; Function Attrs: mustprogress nounwind uwtable
define linkonce_odr void @_ZN6icu_7713LocDataParserD2Ev(ptr noundef nonnull align 8 dereferenceable(48) %0) unnamed_addr #0 comdat align 2 {
  %2 = alloca ptr, align 8
  store ptr %0, ptr %2, align 8, !tbaa !22
  ret void
}

; Function Attrs: mustprogress uwtable
define noundef ptr @_ZN6icu_7713LocDataParser5parseEPDsi(ptr noundef nonnull align 8 dereferenceable(48) %0, ptr noundef %1, i32 noundef %2) #2 align 2 {
  %4 = alloca ptr, align 8
  %5 = alloca ptr, align 8
  %6 = alloca ptr, align 8
  %7 = alloca i32, align 4
  store ptr %0, ptr %5, align 8, !tbaa !22
  store ptr %1, ptr %6, align 8, !tbaa !16
  store i32 %2, ptr %7, align 4, !tbaa !12
  %8 = load ptr, ptr %5, align 8
  %9 = getelementptr inbounds nuw %"class.icu_77::LocDataParser", ptr %8, i32 0, i32 5
  %10 = load ptr, ptr %9, align 8, !tbaa !24
  %11 = load i32, ptr %10, align 4, !tbaa !28
  %12 = call noundef signext i8 @_ZL9U_FAILURE10UErrorCode(i32 noundef %11)
  %13 = icmp ne i8 %12, 0
  br i1 %13, label %14, label %20

14:                                               ; preds = %3
  %15 = load ptr, ptr %6, align 8, !tbaa !16
  %16 = icmp ne ptr %15, null
  br i1 %16, label %17, label %19

17:                                               ; preds = %14
  %18 = load ptr, ptr %6, align 8, !tbaa !16
  call void @uprv_free_77(ptr noundef %18)
  br label %19

19:                                               ; preds = %17, %14
  store ptr null, ptr %4, align 8
  br label %60

20:                                               ; preds = %3
  %21 = getelementptr inbounds nuw %"class.icu_77::LocDataParser", ptr %8, i32 0, i32 4
  %22 = load ptr, ptr %21, align 8, !tbaa !30
  %23 = getelementptr inbounds nuw %struct.UParseError, ptr %22, i32 0, i32 0
  store i32 0, ptr %23, align 4, !tbaa !31
  %24 = getelementptr inbounds nuw %"class.icu_77::LocDataParser", ptr %8, i32 0, i32 4
  %25 = load ptr, ptr %24, align 8, !tbaa !30
  %26 = getelementptr inbounds nuw %struct.UParseError, ptr %25, i32 0, i32 1
  store i32 -1, ptr %26, align 4, !tbaa !33
  %27 = getelementptr inbounds nuw %"class.icu_77::LocDataParser", ptr %8, i32 0, i32 4
  %28 = load ptr, ptr %27, align 8, !tbaa !30
  %29 = getelementptr inbounds nuw %struct.UParseError, ptr %28, i32 0, i32 3
  %30 = getelementptr inbounds [16 x i16], ptr %29, i64 0, i64 0
  store i16 0, ptr %30, align 4, !tbaa !34
  %31 = getelementptr inbounds nuw %"class.icu_77::LocDataParser", ptr %8, i32 0, i32 4
  %32 = load ptr, ptr %31, align 8, !tbaa !30
  %33 = getelementptr inbounds nuw %struct.UParseError, ptr %32, i32 0, i32 2
  %34 = getelementptr inbounds [16 x i16], ptr %33, i64 0, i64 0
  store i16 0, ptr %34, align 4, !tbaa !34
  %35 = load ptr, ptr %6, align 8, !tbaa !16
  %36 = icmp eq ptr %35, null
  br i1 %36, label %37, label %40

37:                                               ; preds = %20
  %38 = getelementptr inbounds nuw %"class.icu_77::LocDataParser", ptr %8, i32 0, i32 5
  %39 = load ptr, ptr %38, align 8, !tbaa !24
  store i32 1, ptr %39, align 4, !tbaa !28
  store ptr null, ptr %4, align 8
  br label %60

40:                                               ; preds = %20
  %41 = load i32, ptr %7, align 4, !tbaa !12
  %42 = icmp sle i32 %41, 0
  br i1 %42, label %43, label %47

43:                                               ; preds = %40
  %44 = getelementptr inbounds nuw %"class.icu_77::LocDataParser", ptr %8, i32 0, i32 5
  %45 = load ptr, ptr %44, align 8, !tbaa !24
  store i32 1, ptr %45, align 4, !tbaa !28
  %46 = load ptr, ptr %6, align 8, !tbaa !16
  call void @uprv_free_77(ptr noundef %46)
  store ptr null, ptr %4, align 8
  br label %60

47:                                               ; preds = %40
  %48 = load ptr, ptr %6, align 8, !tbaa !16
  %49 = getelementptr inbounds nuw %"class.icu_77::LocDataParser", ptr %8, i32 0, i32 0
  store ptr %48, ptr %49, align 8, !tbaa !35
  %50 = getelementptr inbounds nuw %"class.icu_77::LocDataParser", ptr %8, i32 0, i32 0
  %51 = load ptr, ptr %50, align 8, !tbaa !35
  %52 = load i32, ptr %7, align 4, !tbaa !12
  %53 = sext i32 %52 to i64
  %54 = getelementptr inbounds i16, ptr %51, i64 %53
  %55 = getelementptr inbounds nuw %"class.icu_77::LocDataParser", ptr %8, i32 0, i32 1
  store ptr %54, ptr %55, align 8, !tbaa !36
  %56 = load ptr, ptr %6, align 8, !tbaa !16
  %57 = getelementptr inbounds nuw %"class.icu_77::LocDataParser", ptr %8, i32 0, i32 2
  store ptr %56, ptr %57, align 8, !tbaa !37
  %58 = getelementptr inbounds nuw %"class.icu_77::LocDataParser", ptr %8, i32 0, i32 3
  store i16 -1, ptr %58, align 8, !tbaa !38
  %59 = call noundef ptr @_ZN6icu_7713LocDataParser7doParseEv(ptr noundef nonnull align 8 dereferenceable(48) %8)
  store ptr %59, ptr %4, align 8
  br label %60

60:                                               ; preds = %47, %43, %37, %19
  %61 = load ptr, ptr %4, align 8
  ret ptr %61
}

; Function Attrs: mustprogress nounwind uwtable
define linkonce_odr void @_ZN6icu_7713LocDataParserC2ER11UParseErrorR10UErrorCode(ptr noundef nonnull align 8 dereferenceable(48) %0, ptr noundef nonnull align 4 dereferenceable(72) %1, ptr noundef nonnull align 4 dereferenceable(4) %2) unnamed_addr #0 comdat align 2 {
  %4 = alloca ptr, align 8
  %5 = alloca ptr, align 8
  %6 = alloca ptr, align 8
  store ptr %0, ptr %4, align 8, !tbaa !22
  store ptr %1, ptr %5, align 8, !tbaa !78
  store ptr %2, ptr %6, align 8, !tbaa !51
  %7 = load ptr, ptr %4, align 8
  %8 = getelementptr inbounds nuw %"class.icu_77::LocDataParser", ptr %7, i32 0, i32 0
  store ptr null, ptr %8, align 8, !tbaa !35
  %9 = getelementptr inbounds nuw %"class.icu_77::LocDataParser", ptr %7, i32 0, i32 1
  store ptr null, ptr %9, align 8, !tbaa !36
  %10 = getelementptr inbounds nuw %"class.icu_77::LocDataParser", ptr %7, i32 0, i32 2
  store ptr null, ptr %10, align 8, !tbaa !37
  %11 = getelementptr inbounds nuw %"class.icu_77::LocDataParser", ptr %7, i32 0, i32 3
  store i16 -1, ptr %11, align 8, !tbaa !38
  %12 = getelementptr inbounds nuw %"class.icu_77::LocDataParser", ptr %7, i32 0, i32 4
  %13 = load ptr, ptr %5, align 8, !tbaa !78
  store ptr %13, ptr %12, align 8, !tbaa !78
  %14 = getelementptr inbounds nuw %"class.icu_77::LocDataParser", ptr %7, i32 0, i32 5
  %15 = load ptr, ptr %6, align 8, !tbaa !51
  store ptr %15, ptr %14, align 8, !tbaa !51
  ret void
}

; Function Attrs: inlinehint mustprogress nounwind uwtable
define linkonce_odr void @_ZN6icu_779Char16PtrD2Ev(ptr noundef nonnull align 8 dereferenceable(8) %0) unnamed_addr #4 comdat align 2 {
  %2 = alloca ptr, align 8
  store ptr %0, ptr %2, align 8, !tbaa !79
  %3 = load ptr, ptr %2, align 8
  %4 = getelementptr inbounds nuw %"class.icu_77::Char16Ptr", ptr %3, i32 0, i32 0
  %5 = load ptr, ptr %4, align 8, !tbaa !81
  call void asm sideeffect "", "rm,~{memory},~{dirflag},~{fpsr},~{flags}"(ptr %5) #14, !srcloc !83
  ret void
}

; Function Attrs: inlinehint mustprogress nounwind uwtable
define linkonce_odr void @_ZN6icu_779Char16PtrC2EPDs(ptr noundef nonnull align 8 dereferenceable(8) %0, ptr noundef %1) unnamed_addr #4 comdat align 2 {
  %3 = alloca ptr, align 8
  %4 = alloca ptr, align 8
  store ptr %0, ptr %3, align 8, !tbaa !79
  store ptr %1, ptr %4, align 8, !tbaa !16
  %5 = load ptr, ptr %3, align 8
  %6 = getelementptr inbounds nuw %"class.icu_77::Char16Ptr", ptr %5, i32 0, i32 0
  %7 = load ptr, ptr %4, align 8, !tbaa !16
  store ptr %7, ptr %6, align 8, !tbaa !81
  ret void
}

; Function Attrs: inlinehint mustprogress uwtable
define linkonce_odr noundef i32 @_ZNK6icu_7713UnicodeString6lengthEv(ptr noundef nonnull align 8 dereferenceable(64) %0) #6 comdat align 2 {
  %2 = alloca ptr, align 8
  store ptr %0, ptr %2, align 8, !tbaa !76
  %3 = load ptr, ptr %2, align 8
  %4 = call noundef signext i8 @_ZNK6icu_7713UnicodeString14hasShortLengthEv(ptr noundef nonnull align 8 dereferenceable(64) %3)
  %5 = icmp ne i8 %4, 0
  br i1 %5, label %6, label %8

6:                                                ; preds = %1
  %7 = call noundef i32 @_ZNK6icu_7713UnicodeString14getShortLengthEv(ptr noundef nonnull align 8 dereferenceable(64) %3)
  br label %12

8:                                                ; preds = %1
  %9 = getelementptr inbounds nuw %"class.icu_77::UnicodeString", ptr %3, i32 0, i32 1
  %10 = getelementptr inbounds nuw %struct.anon.0, ptr %9, i32 0, i32 1
  %11 = load i32, ptr %10, align 4, !tbaa !39
  br label %12

12:                                               ; preds = %8, %6
  %13 = phi i32 [ %7, %6 ], [ %11, %8 ]
  ret i32 %13
}

; Function Attrs: inlinehint mustprogress nounwind uwtable
define internal noundef signext i8 @_ZL9U_FAILURE10UErrorCode(i32 noundef %0) #4 {
  %2 = alloca i32, align 4
  store i32 %0, ptr %2, align 4, !tbaa !28
  %3 = load i32, ptr %2, align 4, !tbaa !28
  %4 = icmp sgt i32 %3, 0
  %5 = zext i1 %4 to i8
  ret i8 %5
}

; Function Attrs: mustprogress uwtable
define noundef ptr @_ZN6icu_7722StringLocalizationInfo6createERKNS_13UnicodeStringER11UParseErrorR10UErrorCode(ptr noundef nonnull align 8 dereferenceable(64) %0, ptr noundef nonnull align 4 dereferenceable(72) %1, ptr noundef nonnull align 4 dereferenceable(4) %2) #2 align 2 personality ptr @__gxx_personality_v0 {
  %4 = alloca ptr, align 8
  %5 = alloca ptr, align 8
  %6 = alloca ptr, align 8
  %7 = alloca ptr, align 8
  %8 = alloca i32, align 4
  %9 = alloca i32, align 4
  %10 = alloca ptr, align 8
  %11 = alloca %"class.icu_77::Char16Ptr", align 8
  %12 = alloca ptr, align 8
  %13 = alloca i32, align 4
  %14 = alloca %"class.icu_77::LocDataParser", align 8
  store ptr %0, ptr %5, align 8, !tbaa !76
  store ptr %1, ptr %6, align 8, !tbaa !78
  store ptr %2, ptr %7, align 8, !tbaa !51
  %15 = load ptr, ptr %7, align 8, !tbaa !51
  %16 = load i32, ptr %15, align 4, !tbaa !28
  %17 = call noundef signext i8 @_ZL9U_FAILURE10UErrorCode(i32 noundef %16)
  %18 = icmp ne i8 %17, 0
  br i1 %18, label %19, label %20

19:                                               ; preds = %3
  store ptr null, ptr %4, align 8
  br label %66

20:                                               ; preds = %3
  call void @llvm.lifetime.start.p0(i64 4, ptr %8) #14
  %21 = load ptr, ptr %5, align 8, !tbaa !76
  %22 = call noundef i32 @_ZNK6icu_7713UnicodeString6lengthEv(ptr noundef nonnull align 8 dereferenceable(64) %21)
  store i32 %22, ptr %8, align 4, !tbaa !12
  %23 = load i32, ptr %8, align 4, !tbaa !12
  %24 = icmp eq i32 %23, 0
  br i1 %24, label %25, label %26

25:                                               ; preds = %20
  store ptr null, ptr %4, align 8
  store i32 1, ptr %9, align 4
  br label %65

26:                                               ; preds = %20
  call void @llvm.lifetime.start.p0(i64 8, ptr %10) #14
  %27 = load i32, ptr %8, align 4, !tbaa !12
  %28 = sext i32 %27 to i64
  %29 = mul i64 %28, 2
  %30 = call noalias ptr @uprv_malloc_77(i64 noundef %29) #15
  store ptr %30, ptr %10, align 8, !tbaa !16
  %31 = load ptr, ptr %10, align 8, !tbaa !16
  %32 = icmp ne ptr %31, null
  br i1 %32, label %35, label %33

33:                                               ; preds = %26
  %34 = load ptr, ptr %7, align 8, !tbaa !51
  store i32 7, ptr %34, align 4, !tbaa !28
  store ptr null, ptr %4, align 8
  store i32 1, ptr %9, align 4
  br label %63

35:                                               ; preds = %26
  %36 = load ptr, ptr %5, align 8, !tbaa !76
  %37 = load ptr, ptr %10, align 8, !tbaa !16
  call void @_ZN6icu_779Char16PtrC2EPDs(ptr noundef nonnull align 8 dereferenceable(8) %11, ptr noundef %37)
  %38 = load i32, ptr %8, align 4, !tbaa !12
  %39 = load ptr, ptr %7, align 8, !tbaa !51
  %40 = invoke noundef i32 @_ZNK6icu_7713UnicodeString7extractENS_9Char16PtrEiR10UErrorCode(ptr noundef nonnull align 8 dereferenceable(64) %36, ptr noundef %11, i32 noundef %38, ptr noundef nonnull align 4 dereferenceable(4) %39)
          to label %41 unwind label %48

41:                                               ; preds = %35
  call void @_ZN6icu_779Char16PtrD2Ev(ptr noundef nonnull align 8 dereferenceable(8) %11) #14
  %42 = load ptr, ptr %7, align 8, !tbaa !51
  %43 = load i32, ptr %42, align 4, !tbaa !28
  %44 = call noundef signext i8 @_ZL9U_FAILURE10UErrorCode(i32 noundef %43)
  %45 = icmp ne i8 %44, 0
  br i1 %45, label %52, label %46

46:                                               ; preds = %41
  %47 = load ptr, ptr %7, align 8, !tbaa !51
  store i32 0, ptr %47, align 4, !tbaa !28
  br label %52

48:                                               ; preds = %35
  %49 = landingpad { ptr, i32 }
          cleanup
  %50 = extractvalue { ptr, i32 } %49, 0
  store ptr %50, ptr %12, align 8
  %51 = extractvalue { ptr, i32 } %49, 1
  store i32 %51, ptr %13, align 4
  call void @_ZN6icu_779Char16PtrD2Ev(ptr noundef nonnull align 8 dereferenceable(8) %11) #14
  br label %64

52:                                               ; preds = %46, %41
  call void @llvm.lifetime.start.p0(i64 48, ptr %14) #14
  %53 = load ptr, ptr %6, align 8, !tbaa !78
  %54 = load ptr, ptr %7, align 8, !tbaa !51
  call void @_ZN6icu_7713LocDataParserC2ER11UParseErrorR10UErrorCode(ptr noundef nonnull align 8 dereferenceable(48) %14, ptr noundef nonnull align 4 dereferenceable(72) %53, ptr noundef nonnull align 4 dereferenceable(4) %54)
  %55 = load ptr, ptr %10, align 8, !tbaa !16
  %56 = load i32, ptr %8, align 4, !tbaa !12
  %57 = invoke noundef ptr @_ZN6icu_7713LocDataParser5parseEPDsi(ptr noundef nonnull align 8 dereferenceable(48) %14, ptr noundef %55, i32 noundef %56)
          to label %58 unwind label %59

58:                                               ; preds = %52
  store ptr %57, ptr %4, align 8
  store i32 1, ptr %9, align 4
  call void @_ZN6icu_7713LocDataParserD2Ev(ptr noundef nonnull align 8 dereferenceable(48) %14) #14
  call void @llvm.lifetime.end.p0(i64 48, ptr %14) #14
  br label %63

59:                                               ; preds = %52
  %60 = landingpad { ptr, i32 }
          cleanup
  %61 = extractvalue { ptr, i32 } %60, 0
  store ptr %61, ptr %12, align 8
  %62 = extractvalue { ptr, i32 } %60, 1
  store i32 %62, ptr %13, align 4
  call void @_ZN6icu_7713LocDataParserD2Ev(ptr noundef nonnull align 8 dereferenceable(48) %14) #14
  call void @llvm.lifetime.end.p0(i64 48, ptr %14) #14
  br label %64

63:                                               ; preds = %58, %33
  call void @llvm.lifetime.end.p0(i64 8, ptr %10) #14
  br label %65

64:                                               ; preds = %59, %48
  call void @llvm.lifetime.end.p0(i64 8, ptr %10) #14
  call void @llvm.lifetime.end.p0(i64 4, ptr %8) #14
  br label %68

65:                                               ; preds = %63, %25
  call void @llvm.lifetime.end.p0(i64 4, ptr %8) #14
  br label %66

66:                                               ; preds = %65, %19
  %67 = load ptr, ptr %4, align 8
  ret ptr %67

68:                                               ; preds = %64
  %69 = load ptr, ptr %12, align 8
  %70 = load i32, ptr %13, align 4
  %71 = insertvalue { ptr, i32 } poison, ptr %69, 0
  %72 = insertvalue { ptr, i32 } %71, i32 %70, 1
  resume { ptr, i32 } %72
}