; Function Attrs: mustprogress uwtable
define noundef ptr @_ZN6icu_7722StringLocalizationInfo6createERKNS_13UnicodeStringER11UParseErrorR10UErrorCode(ptr noundef nonnull align 8 dereferenceable(64) %0, ptr noundef nonnull align 4 dereferenceable(72) %1, ptr noundef nonnull align 4 dereferenceable(4) %2) local_unnamed_addr #3 align 2 personality ptr @__gxx_personality_v0 {
  %4 = alloca %"class.icu_77::Char16Ptr", align 8
  %5 = alloca %"class.icu_77::LocDataParser", align 8
  %6 = load i32, ptr %2, align 4, !tbaa !19
  %7 = icmp slt i32 %6, 1
  br i1 %7, label %8, label %48

8:                                                ; preds = %3
  %9 = getelementptr inbounds nuw i8, ptr %0, i64 8
  %10 = load i16, ptr %9, align 8, !tbaa !55
  %11 = icmp slt i16 %10, 0
  %12 = ashr i16 %10, 5
  %13 = sext i16 %12 to i32
  %14 = getelementptr inbounds nuw i8, ptr %0, i64 12
  %15 = load i32, ptr %14, align 4
  %16 = select i1 %11, i32 %15, i32 %13
  %17 = icmp eq i32 %16, 0
  br i1 %17, label %48, label %18

18:                                               ; preds = %8
  %19 = sext i32 %16 to i64
  %20 = shl nsw i64 %19, 1
  %21 = tail call noalias ptr @uprv_malloc_77(i64 noundef %20) #22
  %.not22 = icmp eq ptr %21, null
  br i1 %.not22, label %22, label %23

22:                                               ; preds = %18
  store i32 7, ptr %2, align 4, !tbaa !19
  br label %48

23:                                               ; preds = %18
  store ptr %21, ptr %4, align 8, !tbaa !56
  %24 = invoke noundef i32 @_ZNK6icu_7713UnicodeString7extractENS_9Char16PtrEiR10UErrorCode(ptr noundef nonnull align 8 dereferenceable(64) %0, ptr noundef nonnull %4, i32 noundef %16, ptr noundef nonnull align 4 dereferenceable(4) %2)
          to label %25 unwind label %29

25:                                               ; preds = %23
  %26 = load ptr, ptr %4, align 8, !tbaa !56
  call void asm sideeffect "", "rm,~{memory},~{dirflag},~{fpsr},~{flags}"(ptr %26) #21, !srcloc !58
  %27 = load i32, ptr %2, align 4, !tbaa !19
  %28 = icmp slt i32 %27, 1
  br i1 %28, label %33, label %32

29:                                               ; preds = %23
  %30 = landingpad { ptr, i32 }
          cleanup
  %31 = load ptr, ptr %4, align 8, !tbaa !56
  call void asm sideeffect "", "rm,~{memory},~{dirflag},~{fpsr},~{flags}"(ptr %31) #21, !srcloc !58
  resume { ptr, i32 } %30

32:                                               ; preds = %25
  call void @llvm.lifetime.start.p0(i64 48, ptr nonnull %5) #21
  call void @uprv_free_77(ptr noundef nonnull %21)
  br label %_ZN6icu_7713LocDataParser5parseEPDsi.exit

33:                                               ; preds = %25
  store i32 0, ptr %2, align 4, !tbaa !19
  call void @llvm.lifetime.start.p0(i64 48, ptr nonnull %5) #21
  %34 = getelementptr inbounds nuw i8, ptr %5, i64 32
  store ptr %1, ptr %34, align 8, !tbaa !59
  %35 = getelementptr inbounds nuw i8, ptr %5, i64 40
  store ptr %2, ptr %35, align 8, !tbaa !39
  store i32 0, ptr %1, align 4, !tbaa !22
  %36 = getelementptr inbounds nuw i8, ptr %1, i64 4
  store i32 -1, ptr %36, align 4, !tbaa !25
  %37 = getelementptr inbounds nuw i8, ptr %1, i64 40
  store i16 0, ptr %37, align 4, !tbaa !26
  %38 = getelementptr inbounds nuw i8, ptr %1, i64 8
  store i16 0, ptr %38, align 4, !tbaa !26
  %39 = icmp slt i32 %16, 1
  br i1 %39, label %40, label %41

40:                                               ; preds = %33
  store i32 1, ptr %2, align 4, !tbaa !19
  call void @uprv_free_77(ptr noundef nonnull %21)
  br label %_ZN6icu_7713LocDataParser5parseEPDsi.exit

41:                                               ; preds = %33
  %42 = getelementptr inbounds nuw i8, ptr %5, i64 24
  store ptr %21, ptr %5, align 8, !tbaa !27
  %43 = zext nneg i32 %16 to i64
  %44 = getelementptr inbounds nuw i16, ptr %21, i64 %43
  %45 = getelementptr inbounds nuw i8, ptr %5, i64 8
  store ptr %44, ptr %45, align 8, !tbaa !28
  %46 = getelementptr inbounds nuw i8, ptr %5, i64 16
  store ptr %21, ptr %46, align 8, !tbaa !29
  store i16 -1, ptr %42, align 8, !tbaa !30
  %47 = call noundef ptr @_ZN6icu_7713LocDataParser7doParseEv(ptr noundef nonnull align 8 dereferenceable(48) %5)
  br label %_ZN6icu_7713LocDataParser5parseEPDsi.exit

_ZN6icu_7713LocDataParser5parseEPDsi.exit:        ; preds = %32, %40, %41
  %.0.i = phi ptr [ null, %32 ], [ null, %40 ], [ %47, %41 ]
  call void @llvm.lifetime.end.p0(i64 48, ptr nonnull %5) #21
  br label %48

48:                                               ; preds = %8, %_ZN6icu_7713LocDataParser5parseEPDsi.exit, %22, %3
  %.019 = phi ptr [ null, %3 ], [ null, %8 ], [ %.0.i, %_ZN6icu_7713LocDataParser5parseEPDsi.exit ], [ null, %22 ]
  ret ptr %.019
}